target datalayout = "e-m:e-p270:32:32-p271:32:32-p272:64:64-i64:64-i128:128-f80:128-n8:16:32:64-S128"
target triple = "x86_64-pc-linux-gnu"

%struct._zend_phpdbg_globals = type { [11 x %struct._zend_array], %struct._zend_array, %struct._zend_array, ptr, ptr, %struct.phpdbg_frame_t, i32, ptr, %struct.phpdbg_lexer_data, ptr, %struct.sigaction, i32, i64, %struct.phpdbg_btree, %struct.phpdbg_btree, %struct._zend_array, %struct._zend_array, %struct._zend_array, %struct._zend_array, ptr, ptr, i8, ptr, ptr, ptr, i64, ptr, %struct._zval_struct, i32, i32, i8, i8, ptr, ptr, ptr, %struct._zend_array, ptr, ptr, ptr, [3 x %struct.anon.8], ptr, %struct.anon.9, i64, [2 x ptr], [3 x ptr], ptr, i8, ptr, ptr, [500 x i8], i32, %struct.phpdbg_signal_safe_mem, ptr, i64, ptr, i64 }
%struct.phpdbg_frame_t = type { i32, ptr, ptr }
%struct.phpdbg_lexer_data = type { i32, ptr, ptr, ptr, ptr, i32 }
%struct.sigaction = type { %union.anon.7, %struct.__sigset_t, i32, ptr }
%union.anon.7 = type { ptr }
%struct.__sigset_t = type { [16 x i64] }
%struct.phpdbg_btree = type { i64, i64, i8, ptr }
%struct._zval_struct = type { %union._zend_value, %union.anon, %union.anon.2 }
%union._zend_value = type { i64 }
%union.anon = type { i32 }
%union.anon.2 = type { i32 }
%struct._zend_array = type { %struct._zend_refcounted_h, %union.anon.4, i32, %union.anon.6, i32, i32, i32, i32, i64, ptr }
%struct._zend_refcounted_h = type { i32, %union.anon.3 }
%union.anon.3 = type { i32 }
%union.anon.4 = type { i32 }
%union.anon.6 = type { ptr }
%struct.anon.8 = type { i32 }
%struct.anon.9 = type { i8, i32, i32, ptr, i32 }
%struct.phpdbg_signal_safe_mem = type { ptr, i8, ptr, ptr }
%struct._Bucket = type { %struct._zval_struct, i64, ptr }
%struct.phpdbg_btree_result = type { i64, ptr }
%struct._phpdbg_watchpoint_t = type { %union.anon.27, i64, i32, ptr, %struct._zend_array, ptr, %union.anon.28 }
%union.anon.27 = type { ptr }
%union.anon.28 = type { %struct._zend_array }
%struct.phpdbg_btree_position = type { ptr, i64, i64 }

@phpdbg_globals = external global %struct._zend_phpdbg_globals, align 8
@phpdbg_pagesize = internal global i64 0, align 8

; Function Attrs: nounwind uwtable
define hidden i32 @phpdbg_print_changed_zvals() #0 {
  %1 = alloca ptr, align 8
  %2 = alloca ptr, align 8
  %3 = alloca ptr, align 8
  %4 = alloca i32, align 4
  %5 = alloca i32, align 4
  %6 = alloca i64, align 8
  %7 = alloca ptr, align 8
  %8 = alloca ptr, align 8
  %9 = alloca ptr, align 8
  %10 = alloca ptr, align 8
  %11 = alloca ptr, align 8
  %12 = alloca ptr, align 8
  %13 = alloca ptr, align 8
  %14 = alloca %struct.phpdbg_btree_position, align 8
  store ptr null, ptr %9, align 8
  store ptr getelementptr inbounds (%struct._zend_phpdbg_globals, ptr @phpdbg_globals, i32 0, i32 15), ptr %2, align 8
  %15 = load ptr, ptr %2, align 8
  %16 = getelementptr inbounds %struct._zend_array, ptr %15, i32 0, i32 5
  %17 = load i32, ptr %16, align 4
  %18 = icmp eq i32 %17, 0
  br i1 %18, label %19, label %20

19:                                               ; preds = %0
  store i32 -1, ptr %4, align 4
  br label %122

20:                                               ; preds = %0
  %21 = load ptr, ptr getelementptr inbounds (%struct._zend_phpdbg_globals, ptr @phpdbg_globals, i32 0, i32 19), align 8
  store ptr %21, ptr %3, align 8
  %22 = load ptr, ptr %3, align 8
  %23 = getelementptr inbounds %struct._zend_array, ptr %22, i32 0, i32 5
  %24 = load i32, ptr %23, align 4
  %25 = icmp ugt i32 %24, 0
  br i1 %25, label %26, label %112

26:                                               ; preds = %20
  %27 = load ptr, ptr getelementptr inbounds (%struct._zend_phpdbg_globals, ptr @phpdbg_globals, i32 0, i32 19), align 8
  store ptr %27, ptr %9, align 8
  %28 = load ptr, ptr getelementptr inbounds (%struct._zend_phpdbg_globals, ptr @phpdbg_globals, i32 0, i32 20), align 8
  store ptr %28, ptr getelementptr inbounds (%struct._zend_phpdbg_globals, ptr @phpdbg_globals, i32 0, i32 19), align 8
  br label %29

29:                                               ; preds = %26
  %30 = load ptr, ptr %9, align 8
  store ptr %30, ptr %10, align 8
  %31 = load ptr, ptr %10, align 8
  %32 = getelementptr inbounds %struct._zend_array, ptr %31, i32 0, i32 3
  %33 = load ptr, ptr %32, align 8
  %34 = getelementptr inbounds %struct._Bucket, ptr %33, i64 0
  store ptr %34, ptr %11, align 8
  %35 = load ptr, ptr %10, align 8
  %36 = getelementptr inbounds %struct._zend_array, ptr %35, i32 0, i32 3
  %37 = load ptr, ptr %36, align 8
  %38 = load ptr, ptr %10, align 8
  %39 = getelementptr inbounds %struct._zend_array, ptr %38, i32 0, i32 4
  %40 = load i32, ptr %39, align 8
  %41 = zext i32 %40 to i64
  %42 = getelementptr inbounds %struct._Bucket, ptr %37, i64 %41
  store ptr %42, ptr %12, align 8
  %43 = load ptr, ptr %10, align 8
  %44 = getelementptr inbounds %struct._zend_array, ptr %43, i32 0, i32 1
  %45 = load i32, ptr %44, align 8
  %46 = and i32 %45, 4
  %47 = icmp ne i32 %46, 0
  %48 = xor i1 %47, true
  call void @llvm.assume(i1 %48)
  br label %49

49:                                               ; preds = %107, %29
  %50 = load ptr, ptr %11, align 8
  %51 = load ptr, ptr %12, align 8
  %52 = icmp ne ptr %50, %51
  br i1 %52, label %53, label %110

53:                                               ; preds = %49
  %54 = load ptr, ptr %11, align 8
  %55 = getelementptr inbounds %struct._Bucket, ptr %54, i32 0, i32 0
  store ptr %55, ptr %13, align 8
  %56 = load ptr, ptr %13, align 8
  store ptr %56, ptr %1, align 8
  %57 = load ptr, ptr %1, align 8
  %58 = getelementptr inbounds %struct._zval_struct, ptr %57, i32 0, i32 1
  %59 = load i8, ptr %58, align 8
  %60 = zext i8 %59 to i32
  %61 = icmp eq i32 %60, 0
  %62 = xor i1 %61, true
  %63 = xor i1 %62, true
  %64 = zext i1 %63 to i32
  %65 = sext i32 %64 to i64
  %66 = icmp ne i64 %65, 0
  br i1 %66, label %67, label %68

67:                                               ; preds = %53
  br label %107

68:                                               ; preds = %53
  %69 = load ptr, ptr %11, align 8
  %70 = getelementptr inbounds %struct._Bucket, ptr %69, i32 0, i32 1
  %71 = load i64, ptr %70, align 8
  store i64 %71, ptr %6, align 8
  %72 = load i64, ptr %6, align 8
  %73 = load i64, ptr %6, align 8
  %74 = load i64, ptr @phpdbg_pagesize, align 8
  %75 = add i64 %73, %74
  call void @phpdbg_btree_find_between(ptr dead_on_unwind writable sret(%struct.phpdbg_btree_position) align 8 %14, ptr noundef getelementptr inbounds (%struct._zend_phpdbg_globals, ptr @phpdbg_globals, i32 0, i32 13), i64 noundef %72, i64 noundef %75)
  br label %76

76:                                               ; preds = %79, %68
  %77 = call ptr @phpdbg_btree_next(ptr noundef %14)
  store ptr %77, ptr %8, align 8
  %78 = icmp ne ptr %77, null
  br i1 %78, label %79, label %84

79:                                               ; preds = %76
  %80 = load ptr, ptr %8, align 8
  %81 = getelementptr inbounds %struct.phpdbg_btree_result, ptr %80, i32 0, i32 1
  %82 = load ptr, ptr %81, align 8
  store ptr %82, ptr %7, align 8
  %83 = load ptr, ptr %7, align 8
  call void @phpdbg_check_watchpoint(ptr noundef %83)
  br label %76

84:                                               ; preds = %76
  %85 = load i64, ptr %6, align 8
  %86 = sub i64 %85, 1
  %87 = call ptr @phpdbg_btree_find_closest(ptr noundef getelementptr inbounds (%struct._zend_phpdbg_globals, ptr @phpdbg_globals, i32 0, i32 13), i64 noundef %86)
  store ptr %87, ptr %8, align 8
  %88 = icmp ne ptr %87, null
  br i1 %88, label %89, label %106

89:                                               ; preds = %84
  %90 = load ptr, ptr %8, align 8
  %91 = getelementptr inbounds %struct.phpdbg_btree_result, ptr %90, i32 0, i32 1
  %92 = load ptr, ptr %91, align 8
  store ptr %92, ptr %7, align 8
  %93 = load i64, ptr %6, align 8
  %94 = inttoptr i64 %93 to ptr
  %95 = load ptr, ptr %7, align 8
  %96 = getelementptr inbounds %struct._phpdbg_watchpoint_t, ptr %95, i32 0, i32 0
  %97 = load ptr, ptr %96, align 8
  %98 = load ptr, ptr %7, align 8
  %99 = getelementptr inbounds %struct._phpdbg_watchpoint_t, ptr %98, i32 0, i32 1
  %100 = load i64, ptr %99, align 8
  %101 = getelementptr inbounds i8, ptr %97, i64 %100
  %102 = icmp ult ptr %94, %101
  br i1 %102, label %103, label %105

103:                                              ; preds = %89
  %104 = load ptr, ptr %7, align 8
  call void @phpdbg_check_watchpoint(ptr noundef %104)
  br label %105

105:                                              ; preds = %103, %89
  br label %106

106:                                              ; preds = %105, %84
  br label %107

107:                                              ; preds = %106, %67
  %108 = load ptr, ptr %11, align 8
  %109 = getelementptr inbounds %struct._Bucket, ptr %108, i32 1
  store ptr %109, ptr %11, align 8
  br label %49

110:                                              ; preds = %49
  br label %111

111:                                              ; preds = %110
  br label %112

112:                                              ; preds = %111, %20
  call void @phpdbg_dequeue_elements_for_recreation()
  call void @phpdbg_reenable_memory_watches()
  %113 = load ptr, ptr %9, align 8
  %114 = icmp ne ptr %113, null
  br i1 %114, label %115, label %117

115:                                              ; preds = %112
  %116 = load ptr, ptr %9, align 8
  store ptr %116, ptr getelementptr inbounds (%struct._zend_phpdbg_globals, ptr @phpdbg_globals, i32 0, i32 19), align 8
  call void @phpdbg_reenable_memory_watches()
  br label %117

117:                                              ; preds = %115, %112
  %118 = load i8, ptr getelementptr inbounds (%struct._zend_phpdbg_globals, ptr @phpdbg_globals, i32 0, i32 21), align 8
  %119 = trunc i8 %118 to i1
  %120 = select i1 %119, i32 0, i32 -1
  store i32 %120, ptr %5, align 4
  store i8 0, ptr getelementptr inbounds (%struct._zend_phpdbg_globals, ptr @phpdbg_globals, i32 0, i32 21), align 8
  %121 = load i32, ptr %5, align 4
  store i32 %121, ptr %4, align 4
  br label %122

122:                                              ; preds = %117, %19
  %123 = load i32, ptr %4, align 4
  ret i32 %123
}